target datalayout = "e-m:e-p270:32:32-p271:32:32-p272:64:64-i64:64-i128:128-f80:128-n8:16:32:64-S128"
target triple = "x86_64-pc-linux-gnu"

%struct.OSQPCscMatrix = type { i64, i64, ptr, ptr, ptr, i64, i64 }

; Function Attrs: nounwind uwtable
define void @update_KKT_P(ptr noundef %0, ptr noundef %1, ptr noundef %2, i64 noundef %3, ptr noundef %4, double noundef %5, i64 noundef %6) #0 {
  %8 = alloca ptr, align 8
  %9 = alloca ptr, align 8
  %10 = alloca ptr, align 8
  %11 = alloca i64, align 8
  %12 = alloca ptr, align 8
  %13 = alloca double, align 8
  %14 = alloca i64, align 8
  %15 = alloca i64, align 8
  %16 = alloca i64, align 8
  %17 = alloca i64, align 8
  %18 = alloca i64, align 8
  %19 = alloca i64, align 8
  %20 = alloca i64, align 8
  %21 = alloca i32, align 4
  store ptr %0, ptr %8, align 8, !tbaa !3
  store ptr %1, ptr %9, align 8, !tbaa !3
  store ptr %2, ptr %10, align 8, !tbaa !13
  store i64 %3, ptr %11, align 8, !tbaa !7
  store ptr %4, ptr %12, align 8, !tbaa !13
  store double %5, ptr %13, align 8, !tbaa !9
  store i64 %6, ptr %14, align 8, !tbaa !7
  call void @llvm.lifetime.start.p0(i64 8, ptr %15) #3
  call void @llvm.lifetime.start.p0(i64 8, ptr %16) #3
  call void @llvm.lifetime.start.p0(i64 8, ptr %17) #3
  call void @llvm.lifetime.start.p0(i64 8, ptr %18) #3
  call void @llvm.lifetime.start.p0(i64 8, ptr %19) #3
  call void @llvm.lifetime.start.p0(i64 8, ptr %20) #3
  %22 = load i64, ptr %11, align 8, !tbaa !7
  %23 = icmp sle i64 %22, 0
  br i1 %23, label %24, label %25

24:                                               ; preds = %7
  store i32 1, ptr %21, align 4
  br label %112

25:                                               ; preds = %7
  %26 = load ptr, ptr %10, align 8, !tbaa !13
  %27 = icmp eq ptr %26, null
  %28 = select i1 %27, i32 1, i32 0
  %29 = sext i32 %28 to i64
  store i64 %29, ptr %20, align 8, !tbaa !7
  %30 = load i64, ptr %14, align 8, !tbaa !7
  %31 = icmp eq i64 %30, 0
  %32 = select i1 %31, i32 1, i32 0
  %33 = sext i32 %32 to i64
  store i64 %33, ptr %19, align 8, !tbaa !7
  store i64 0, ptr %15, align 8, !tbaa !7
  br label %34

34:                                               ; preds = %108, %25
  %35 = load i64, ptr %15, align 8, !tbaa !7
  %36 = load i64, ptr %11, align 8, !tbaa !7
  %37 = icmp slt i64 %35, %36
  br i1 %37, label %38, label %111

38:                                               ; preds = %34
  %39 = load i64, ptr %20, align 8, !tbaa !7
  %40 = icmp ne i64 %39, 0
  br i1 %40, label %41, label %43

41:                                               ; preds = %38
  %42 = load i64, ptr %15, align 8, !tbaa !7
  br label %48

43:                                               ; preds = %38
  %44 = load ptr, ptr %10, align 8, !tbaa !13
  %45 = load i64, ptr %15, align 8, !tbaa !7
  %46 = getelementptr inbounds i64, ptr %44, i64 %45
  %47 = load i64, ptr %46, align 8, !tbaa !7
  br label %48

48:                                               ; preds = %43, %41
  %49 = phi i64 [ %42, %41 ], [ %47, %43 ]
  store i64 %49, ptr %16, align 8, !tbaa !7
  %50 = load ptr, ptr %12, align 8, !tbaa !13
  %51 = load i64, ptr %16, align 8, !tbaa !7
  %52 = getelementptr inbounds i64, ptr %50, i64 %51
  %53 = load i64, ptr %52, align 8, !tbaa !7
  store i64 %53, ptr %17, align 8, !tbaa !7
  %54 = load ptr, ptr %9, align 8, !tbaa !3
  %55 = getelementptr inbounds nuw %struct.OSQPCscMatrix, ptr %54, i32 0, i32 4
  %56 = load ptr, ptr %55, align 8, !tbaa !24
  %57 = load i64, ptr %16, align 8, !tbaa !7
  %58 = getelementptr inbounds double, ptr %56, i64 %57
  %59 = load double, ptr %58, align 8, !tbaa !9
  %60 = load ptr, ptr %8, align 8, !tbaa !3
  %61 = getelementptr inbounds nuw %struct.OSQPCscMatrix, ptr %60, i32 0, i32 4
  %62 = load ptr, ptr %61, align 8, !tbaa !24
  %63 = load i64, ptr %17, align 8, !tbaa !7
  %64 = getelementptr inbounds double, ptr %62, i64 %63
  store double %59, ptr %64, align 8, !tbaa !9
  %65 = load ptr, ptr %9, align 8, !tbaa !3
  %66 = getelementptr inbounds nuw %struct.OSQPCscMatrix, ptr %65, i32 0, i32 3
  %67 = load ptr, ptr %66, align 8, !tbaa !19
  %68 = load i64, ptr %16, align 8, !tbaa !7
  %69 = getelementptr inbounds i64, ptr %67, i64 %68
  %70 = load i64, ptr %69, align 8, !tbaa !7
  store i64 %70, ptr %18, align 8, !tbaa !7
  %71 = load ptr, ptr %9, align 8, !tbaa !3
  %72 = getelementptr inbounds nuw %struct.OSQPCscMatrix, ptr %71, i32 0, i32 2
  %73 = load ptr, ptr %72, align 8, !tbaa !18
  %74 = load i64, ptr %18, align 8, !tbaa !7
  %75 = getelementptr inbounds i64, ptr %73, i64 %74
  %76 = load i64, ptr %75, align 8, !tbaa !7
  %77 = load ptr, ptr %9, align 8, !tbaa !3
  %78 = getelementptr inbounds nuw %struct.OSQPCscMatrix, ptr %77, i32 0, i32 2
  %79 = load ptr, ptr %78, align 8, !tbaa !18
  %80 = load i64, ptr %18, align 8, !tbaa !7
  %81 = add nsw i64 %80, 1
  %82 = getelementptr inbounds i64, ptr %79, i64 %81
  %83 = load i64, ptr %82, align 8, !tbaa !7
  %84 = icmp slt i64 %76, %83
  br i1 %84, label %85, label %107

85:                                               ; preds = %48
  %86 = load ptr, ptr %9, align 8, !tbaa !3
  %87 = getelementptr inbounds nuw %struct.OSQPCscMatrix, ptr %86, i32 0, i32 2
  %88 = load ptr, ptr %87, align 8, !tbaa !18
  %89 = load i64, ptr %18, align 8, !tbaa !7
  %90 = load i64, ptr %19, align 8, !tbaa !7
  %91 = add nsw i64 %89, %90
  %92 = getelementptr inbounds i64, ptr %88, i64 %91
  %93 = load i64, ptr %92, align 8, !tbaa !7
  %94 = load i64, ptr %19, align 8, !tbaa !7
  %95 = sub nsw i64 %93, %94
  %96 = load i64, ptr %16, align 8, !tbaa !7
  %97 = icmp eq i64 %95, %96
  br i1 %97, label %98, label %107

98:                                               ; preds = %85
  %99 = load double, ptr %13, align 8, !tbaa !9
  %100 = load ptr, ptr %8, align 8, !tbaa !3
  %101 = getelementptr inbounds nuw %struct.OSQPCscMatrix, ptr %100, i32 0, i32 4
  %102 = load ptr, ptr %101, align 8, !tbaa !24
  %103 = load i64, ptr %17, align 8, !tbaa !7
  %104 = getelementptr inbounds double, ptr %102, i64 %103
  %105 = load double, ptr %104, align 8, !tbaa !9
  %106 = fadd double %105, %99
  store double %106, ptr %104, align 8, !tbaa !9
  br label %107

107:                                              ; preds = %98, %85, %48
  br label %108

108:                                              ; preds = %107
  %109 = load i64, ptr %15, align 8, !tbaa !7
  %110 = add nsw i64 %109, 1
  store i64 %110, ptr %15, align 8, !tbaa !7
  br label %34, !llvm.loop !28

111:                                              ; preds = %34
  store i32 1, ptr %21, align 4
  br label %112

112:                                              ; preds = %111, %24
  call void @llvm.lifetime.end.p0(i64 8, ptr %20) #3
  call void @llvm.lifetime.end.p0(i64 8, ptr %19) #3
  call void @llvm.lifetime.end.p0(i64 8, ptr %18) #3
  call void @llvm.lifetime.end.p0(i64 8, ptr %17) #3
  call void @llvm.lifetime.end.p0(i64 8, ptr %16) #3
  call void @llvm.lifetime.end.p0(i64 8, ptr %15) #3
  ret void
}