; Function Attrs: nofree norecurse nosync nounwind memory(readwrite, inaccessiblemem: none) uwtable
define void @update_KKT_P(ptr noundef readonly captures(none) %0, ptr noundef readonly captures(none) %1, ptr noundef readonly captures(address_is_null) %2, i64 noundef %3, ptr noundef readonly captures(none) %4, double noundef %5, i64 noundef %6) local_unnamed_addr #2 {
  %8 = icmp slt i64 %3, 1
  br i1 %8, label %.loopexit, label %9

9:                                                ; preds = %7
  %10 = icmp eq ptr %2, null
  %11 = icmp eq i64 %6, 0
  %12 = zext i1 %11 to i64
  %13 = getelementptr inbounds nuw i8, ptr %1, i64 32
  %14 = load ptr, ptr %13, align 8, !tbaa !23
  %15 = getelementptr inbounds nuw i8, ptr %0, i64 32
  %16 = load ptr, ptr %15, align 8, !tbaa !23
  %17 = getelementptr inbounds nuw i8, ptr %1, i64 24
  %18 = load ptr, ptr %17, align 8, !tbaa !14
  %19 = getelementptr inbounds nuw i8, ptr %1, i64 16
  %20 = load ptr, ptr %19, align 8, !tbaa !12
  br i1 %10, label %.split.us, label %.split

.split.us:                                        ; preds = %9, %40
  %.031.us = phi i64 [ %41, %40 ], [ 0, %9 ]
  %21 = getelementptr inbounds nuw i64, ptr %4, i64 %.031.us
  %22 = load i64, ptr %21, align 8, !tbaa !13
  %23 = getelementptr inbounds nuw double, ptr %14, i64 %.031.us
  %24 = load double, ptr %23, align 8, !tbaa !24
  %25 = getelementptr inbounds double, ptr %16, i64 %22
  store double %24, ptr %25, align 8, !tbaa !24
  %26 = getelementptr inbounds nuw i64, ptr %18, i64 %.031.us
  %27 = load i64, ptr %26, align 8, !tbaa !13
  %28 = getelementptr inbounds i64, ptr %20, i64 %27
  %29 = load i64, ptr %28, align 8, !tbaa !13
  %30 = getelementptr i8, ptr %28, i64 8
  %31 = load i64, ptr %30, align 8, !tbaa !13
  %32 = icmp slt i64 %29, %31
  br i1 %32, label %33, label %40

33:                                               ; preds = %.split.us
  %34 = getelementptr i64, ptr %28, i64 %12
  %35 = load i64, ptr %34, align 8, !tbaa !13
  %36 = sub nsw i64 %35, %12
  %37 = icmp eq i64 %36, %.031.us
  br i1 %37, label %38, label %40

38:                                               ; preds = %33
  %39 = fadd double %5, %24
  store double %39, ptr %25, align 8, !tbaa !24
  br label %40

40:                                               ; preds = %38, %33, %.split.us
  %41 = add nuw nsw i64 %.031.us, 1
  %exitcond33.not = icmp eq i64 %41, %3
  br i1 %exitcond33.not, label %.loopexit, label %.split.us, !llvm.loop !33

.split:                                           ; preds = %9, %63
  %.031 = phi i64 [ %64, %63 ], [ 0, %9 ]
  %42 = getelementptr inbounds nuw i64, ptr %2, i64 %.031
  %43 = load i64, ptr %42, align 8, !tbaa !13
  %44 = getelementptr inbounds i64, ptr %4, i64 %43
  %45 = load i64, ptr %44, align 8, !tbaa !13
  %46 = getelementptr inbounds double, ptr %14, i64 %43
  %47 = load double, ptr %46, align 8, !tbaa !24
  %48 = getelementptr inbounds double, ptr %16, i64 %45
  store double %47, ptr %48, align 8, !tbaa !24
  %49 = getelementptr inbounds i64, ptr %18, i64 %43
  %50 = load i64, ptr %49, align 8, !tbaa !13
  %51 = getelementptr inbounds i64, ptr %20, i64 %50
  %52 = load i64, ptr %51, align 8, !tbaa !13
  %53 = getelementptr i8, ptr %51, i64 8
  %54 = load i64, ptr %53, align 8, !tbaa !13
  %55 = icmp slt i64 %52, %54
  br i1 %55, label %56, label %63

56:                                               ; preds = %.split
  %57 = getelementptr i64, ptr %51, i64 %12
  %58 = load i64, ptr %57, align 8, !tbaa !13
  %59 = sub nsw i64 %58, %12
  %60 = icmp eq i64 %59, %43
  br i1 %60, label %61, label %63

61:                                               ; preds = %56
  %62 = fadd double %5, %47
  store double %62, ptr %48, align 8, !tbaa !24
  br label %63

63:                                               ; preds = %.split, %56, %61
  %64 = add nuw nsw i64 %.031, 1
  %exitcond.not = icmp eq i64 %64, %3
  br i1 %exitcond.not, label %.loopexit, label %.split, !llvm.loop !33

.loopexit:                                        ; preds = %63, %40, %7
  ret void
}